; Function Attrs: mustprogress nounwind uwtable
define dso_local void @_ZN4llvm11MCAsmParserD2Ev(ptr noundef nonnull align 8 dereferenceable(34) %0) unnamed_addr #0 align 2 {
  store ptr getelementptr inbounds inrange(-16, 280) (i8, ptr @_ZTVN4llvm11MCAsmParserE, i64 16), ptr %0, align 8
  %2 = getelementptr inbounds nuw i8, ptr %0, i64 16
  %3 = load ptr, ptr %2, align 8
  %4 = tail call noundef i64 @_ZNK4llvm15SmallVectorBaseIjE4sizeEv(ptr noundef nonnull align 8 dereferenceable(16) %2) #13
  %.not4.i.i = icmp eq i64 %4, 0
  br i1 %.not4.i.i, label %_ZN4llvm23SmallVectorTemplateBaseINS_11MCAsmParser14MCPendingErrorELb0EE13destroy_rangeEPS2_S4_.exit.i, label %.lr.ph.i.preheader.i

.lr.ph.i.preheader.i:                             ; preds = %1
  %5 = getelementptr inbounds %"struct.llvm::MCAsmParser::MCPendingError", ptr %3, i64 %4
  br label %.lr.ph.i.i

.lr.ph.i.i:                                       ; preds = %_ZN4llvm11MCAsmParser14MCPendingErrorD2Ev.exit.i.i, %.lr.ph.i.preheader.i
  %.05.i.i = phi ptr [ %6, %_ZN4llvm11MCAsmParser14MCPendingErrorD2Ev.exit.i.i ], [ %5, %.lr.ph.i.preheader.i ]
  %6 = getelementptr inbounds i8, ptr %.05.i.i, i64 -112
  %7 = getelementptr inbounds i8, ptr %.05.i.i, i64 -104
  %8 = tail call noundef i64 @_ZNK4llvm15SmallVectorBaseImE4sizeEv(ptr noundef nonnull align 8 dereferenceable(24) %7) #13
  %9 = load ptr, ptr %7, align 8
  %10 = getelementptr inbounds i8, ptr %.05.i.i, i64 -80
  %11 = icmp eq ptr %9, %10
  br i1 %11, label %_ZN4llvm11MCAsmParser14MCPendingErrorD2Ev.exit.i.i, label %12

12:                                               ; preds = %.lr.ph.i.i
  tail call void @free(ptr noundef %9) #13
  br label %_ZN4llvm11MCAsmParser14MCPendingErrorD2Ev.exit.i.i

_ZN4llvm11MCAsmParser14MCPendingErrorD2Ev.exit.i.i: ; preds = %12, %.lr.ph.i.i
  %.not.i.i = icmp eq ptr %3, %6
  br i1 %.not.i.i, label %_ZN4llvm23SmallVectorTemplateBaseINS_11MCAsmParser14MCPendingErrorELb0EE13destroy_rangeEPS2_S4_.exit.i, label %.lr.ph.i.i, !llvm.loop !4

_ZN4llvm23SmallVectorTemplateBaseINS_11MCAsmParser14MCPendingErrorELb0EE13destroy_rangeEPS2_S4_.exit.i: ; preds = %_ZN4llvm11MCAsmParser14MCPendingErrorD2Ev.exit.i.i, %1
  %13 = load ptr, ptr %2, align 8
  %14 = getelementptr inbounds i8, ptr %0, i64 32
  %15 = icmp eq ptr %13, %14
  br i1 %15, label %_ZN4llvm11SmallVectorINS_11MCAsmParser14MCPendingErrorELj0EED2Ev.exit, label %16

16:                                               ; preds = %_ZN4llvm23SmallVectorTemplateBaseINS_11MCAsmParser14MCPendingErrorELb0EE13destroy_rangeEPS2_S4_.exit.i
  tail call void @free(ptr noundef %13) #13
  br label %_ZN4llvm11SmallVectorINS_11MCAsmParser14MCPendingErrorELj0EED2Ev.exit

_ZN4llvm11SmallVectorINS_11MCAsmParser14MCPendingErrorELj0EED2Ev.exit: ; preds = %_ZN4llvm23SmallVectorTemplateBaseINS_11MCAsmParser14MCPendingErrorELb0EE13destroy_rangeEPS2_S4_.exit.i, %16
  ret void
}